target datalayout = "e-m:e-p270:32:32-p271:32:32-p272:64:64-i64:64-f80:128-n8:16:32:64-S128"
target triple = "x86_64-pc-linux-gnu"

@.str = private unnamed_addr constant [3 x i8] c"%d\00", align 1
@.str.1 = private unnamed_addr constant [7 x i8] c"%d%d%d\00", align 1
@.str.2 = private unnamed_addr constant [28 x i8] c"(%d,%d,%d)-(%d,%d,%d)=%.2f\0A\00", align 1

; Function Attrs: noinline nounwind uwtable
define dso_local i32 @sq(i32 %0, i32 %1) #0 {
  %3 = alloca i32, align 4
  %4 = alloca i32, align 4
  %5 = alloca i32, align 4
  store i32 %0, i32* %3, align 4
  store i32 %1, i32* %4, align 4
  %6 = load i32, i32* %3, align 4
  %7 = load i32, i32* %4, align 4
  %8 = sub nsw i32 %6, %7
  %9 = load i32, i32* %3, align 4
  %10 = load i32, i32* %4, align 4
  %11 = sub nsw i32 %9, %10
  %12 = mul nsw i32 %8, %11
  store i32 %12, i32* %5, align 4
  %13 = load i32, i32* %5, align 4
  ret i32 %13
}

; Function Attrs: noinline nounwind uwtable
define dso_local float @dis(i32* %0, i32* %1) #0 {
  %3 = alloca i32*, align 8
  %4 = alloca i32*, align 8
  %5 = alloca i32, align 4
  %6 = alloca float, align 4
  store i32* %0, i32** %3, align 8
  store i32* %1, i32** %4, align 8
  store float 0.000000e+00, float* %6, align 4
  store i32 0, i32* %5, align 4
  br label %7

7:                                                ; preds = %25, %2
  %8 = load i32, i32* %5, align 4
  %9 = icmp slt i32 %8, 3
  br i1 %9, label %10, label %28

10:                                               ; preds = %7
  %11 = load i32*, i32** %3, align 8
  %12 = load i32, i32* %5, align 4
  %13 = sext i32 %12 to i64
  %14 = getelementptr inbounds i32, i32* %11, i64 %13
  %15 = load i32, i32* %14, align 4
  %16 = load i32*, i32** %4, align 8
  %17 = load i32, i32* %5, align 4
  %18 = sext i32 %17 to i64
  %19 = getelementptr inbounds i32, i32* %16, i64 %18
  %20 = load i32, i32* %19, align 4
  %21 = call i32 @sq(i32 %15, i32 %20)
  %22 = sitofp i32 %21 to float
  %23 = load float, float* %6, align 4
  %24 = fadd float %23, %22
  store float %24, float* %6, align 4
  br label %25

25:                                               ; preds = %10
  %26 = load i32, i32* %5, align 4
  %27 = add nsw i32 %26, 1
  store i32 %27, i32* %5, align 4
  br label %7

28:                                               ; preds = %7
  %29 = load float, float* %6, align 4
  %30 = fpext float %29 to double
  %31 = call double @sqrt(double %30) #3
  %32 = fptrunc double %31 to float
  store float %32, float* %6, align 4
  %33 = load float, float* %6, align 4
  ret float %33
}

; Function Attrs: noinline nounwind uwtable
define dso_local void @main() #0 {
  %1 = alloca i32, align 4
  %2 = alloca i32, align 4
  %3 = alloca [10 x [3 x i32]], align 16
  %4 = alloca i32, align 4
  %5 = alloca i32, align 4
  %6 = alloca i32, align 4
  %7 = alloca i32, align 4
  %8 = alloca [50 x [3 x float]], align 16
  %9 = alloca float, align 4
  store i32 0, i32* %4, align 4
  %10 = call i32 (i8*, ...) @__isoc99_scanf(i8* getelementptr inbounds ([3 x i8], [3 x i8]* @.str, i64 0, i64 0), i32* %1)
  store i32 0, i32* %2, align 4
  br label %11

11:                                               ; preds = %29, %0
  %12 = load i32, i32* %2, align 4
  %13 = load i32, i32* %1, align 4
  %14 = icmp slt i32 %12, %13
  br i1 %14, label %15, label %32

15:                                               ; preds = %11
  %16 = load i32, i32* %2, align 4
  %17 = sext i32 %16 to i64
  %18 = getelementptr inbounds [10 x [3 x i32]], [10 x [3 x i32]]* %3, i64 0, i64 %17
  %19 = getelementptr inbounds [3 x i32], [3 x i32]* %18, i64 0, i64 0
  %20 = load i32, i32* %2, align 4
  %21 = sext i32 %20 to i64
  %22 = getelementptr inbounds [10 x [3 x i32]], [10 x [3 x i32]]* %3, i64 0, i64 %21
  %23 = getelementptr inbounds [3 x i32], [3 x i32]* %22, i64 0, i64 1
  %24 = load i32, i32* %2, align 4
  %25 = sext i32 %24 to i64
  %26 = getelementptr inbounds [10 x [3 x i32]], [10 x [3 x i32]]* %3, i64 0, i64 %25
  %27 = getelementptr inbounds [3 x i32], [3 x i32]* %26, i64 0, i64 2
  %28 = call i32 (i8*, ...) @__isoc99_scanf(i8* getelementptr inbounds ([7 x i8], [7 x i8]* @.str.1, i64 0, i64 0), i32* %19, i32* %23, i32* %27)
  br label %29

29:                                               ; preds = %15
  %30 = load i32, i32* %2, align 4
  %31 = add nsw i32 %30, 1
  store i32 %31, i32* %2, align 4
  br label %11

32:                                               ; preds = %11
  store i32 0, i32* %2, align 4
  br label %33

33:                                               ; preds = %77, %32
  %34 = load i32, i32* %2, align 4
  %35 = load i32, i32* %1, align 4
  %36 = sub nsw i32 %35, 1
  %37 = icmp slt i32 %34, %36
  br i1 %37, label %38, label %80

38:                                               ; preds = %33
  %39 = load i32, i32* %2, align 4
  %40 = add nsw i32 %39, 1
  store i32 %40, i32* %6, align 4
  br label %41

41:                                               ; preds = %73, %38
  %42 = load i32, i32* %6, align 4
  %43 = load i32, i32* %1, align 4
  %44 = icmp slt i32 %42, %43
  br i1 %44, label %45, label %76

45:                                               ; preds = %41
  %46 = load i32, i32* %2, align 4
  %47 = sitofp i32 %46 to float
  %48 = load i32, i32* %4, align 4
  %49 = sext i32 %48 to i64
  %50 = getelementptr inbounds [50 x [3 x float]], [50 x [3 x float]]* %8, i64 0, i64 %49
  %51 = getelementptr inbounds [3 x float], [3 x float]* %50, i64 0, i64 0
  store float %47, float* %51, align 4
  %52 = load i32, i32* %6, align 4
  %53 = sitofp i32 %52 to float
  %54 = load i32, i32* %4, align 4
  %55 = sext i32 %54 to i64
  %56 = getelementptr inbounds [50 x [3 x float]], [50 x [3 x float]]* %8, i64 0, i64 %55
  %57 = getelementptr inbounds [3 x float], [3 x float]* %56, i64 0, i64 1
  store float %53, float* %57, align 4
  %58 = load i32, i32* %2, align 4
  %59 = sext i32 %58 to i64
  %60 = getelementptr inbounds [10 x [3 x i32]], [10 x [3 x i32]]* %3, i64 0, i64 %59
  %61 = getelementptr inbounds [3 x i32], [3 x i32]* %60, i64 0, i64 0
  %62 = load i32, i32* %6, align 4
  %63 = sext i32 %62 to i64
  %64 = getelementptr inbounds [10 x [3 x i32]], [10 x [3 x i32]]* %3, i64 0, i64 %63
  %65 = getelementptr inbounds [3 x i32], [3 x i32]* %64, i64 0, i64 0
  %66 = call float @dis(i32* %61, i32* %65)
  %67 = load i32, i32* %4, align 4
  %68 = sext i32 %67 to i64
  %69 = getelementptr inbounds [50 x [3 x float]], [50 x [3 x float]]* %8, i64 0, i64 %68
  %70 = getelementptr inbounds [3 x float], [3 x float]* %69, i64 0, i64 2
  store float %66, float* %70, align 4
  %71 = load i32, i32* %4, align 4
  %72 = add nsw i32 %71, 1
  store i32 %72, i32* %4, align 4
  br label %73

73:                                               ; preds = %45
  %74 = load i32, i32* %6, align 4
  %75 = add nsw i32 %74, 1
  store i32 %75, i32* %6, align 4
  br label %41

76:                                               ; preds = %41
  br label %77

77:                                               ; preds = %76
  %78 = load i32, i32* %2, align 4
  %79 = add nsw i32 %78, 1
  store i32 %79, i32* %2, align 4
  br label %33

80:                                               ; preds = %33
  store i32 1, i32* %6, align 4
  br label %81

81:                                               ; preds = %149, %80
  %82 = load i32, i32* %6, align 4
  %83 = load i32, i32* %4, align 4
  %84 = sub nsw i32 %83, 1
  %85 = icmp sle i32 %82, %84
  br i1 %85, label %86, label %152

86:                                               ; preds = %81
  store i32 0, i32* %2, align 4
  br label %87

87:                                               ; preds = %145, %86
  %88 = load i32, i32* %2, align 4
  %89 = load i32, i32* %4, align 4
  %90 = load i32, i32* %6, align 4
  %91 = sub nsw i32 %89, %90
  %92 = icmp slt i32 %88, %91
  br i1 %92, label %93, label %148

93:                                               ; preds = %87
  %94 = load i32, i32* %2, align 4
  %95 = sext i32 %94 to i64
  %96 = getelementptr inbounds [50 x [3 x float]], [50 x [3 x float]]* %8, i64 0, i64 %95
  %97 = getelementptr inbounds [3 x float], [3 x float]* %96, i64 0, i64 2
  %98 = load float, float* %97, align 4
  %99 = load i32, i32* %2, align 4
  %100 = add nsw i32 %99, 1
  %101 = sext i32 %100 to i64
  %102 = getelementptr inbounds [50 x [3 x float]], [50 x [3 x float]]* %8, i64 0, i64 %101
  %103 = getelementptr inbounds [3 x float], [3 x float]* %102, i64 0, i64 2
  %104 = load float, float* %103, align 4
  %105 = fcmp olt float %98, %104
  br i1 %105, label %106, label %144

106:                                              ; preds = %93
  store i32 0, i32* %7, align 4
  br label %107

107:                                              ; preds = %140, %106
  %108 = load i32, i32* %7, align 4
  %109 = icmp slt i32 %108, 3
  br i1 %109, label %110, label %143

110:                                              ; preds = %107
  %111 = load i32, i32* %2, align 4
  %112 = sext i32 %111 to i64
  %113 = getelementptr inbounds [50 x [3 x float]], [50 x [3 x float]]* %8, i64 0, i64 %112
  %114 = load i32, i32* %7, align 4
  %115 = sext i32 %114 to i64
  %116 = getelementptr inbounds [3 x float], [3 x float]* %113, i64 0, i64 %115
  %117 = load float, float* %116, align 4
  store float %117, float* %9, align 4
  %118 = load i32, i32* %2, align 4
  %119 = add nsw i32 %118, 1
  %120 = sext i32 %119 to i64
  %121 = getelementptr inbounds [50 x [3 x float]], [50 x [3 x float]]* %8, i64 0, i64 %120
  %122 = load i32, i32* %7, align 4
  %123 = sext i32 %122 to i64
  %124 = getelementptr inbounds [3 x float], [3 x float]* %121, i64 0, i64 %123
  %125 = load float, float* %124, align 4
  %126 = load i32, i32* %2, align 4
  %127 = sext i32 %126 to i64
  %128 = getelementptr inbounds [50 x [3 x float]], [50 x [3 x float]]* %8, i64 0, i64 %127
  %129 = load i32, i32* %7, align 4
  %130 = sext i32 %129 to i64
  %131 = getelementptr inbounds [3 x float], [3 x float]* %128, i64 0, i64 %130
  store float %125, float* %131, align 4
  %132 = load float, float* %9, align 4
  %133 = load i32, i32* %2, align 4
  %134 = add nsw i32 %133, 1
  %135 = sext i32 %134 to i64
  %136 = getelementptr inbounds [50 x [3 x float]], [50 x [3 x float]]* %8, i64 0, i64 %135
  %137 = load i32, i32* %7, align 4
  %138 = sext i32 %137 to i64
  %139 = getelementptr inbounds [3 x float], [3 x float]* %136, i64 0, i64 %138
  store float %132, float* %139, align 4
  br label %140

140:                                              ; preds = %110
  %141 = load i32, i32* %7, align 4
  %142 = add nsw i32 %141, 1
  store i32 %142, i32* %7, align 4
  br label %107

143:                                              ; preds = %107
  br label %144

144:                                              ; preds = %143, %93
  br label %145

145:                                              ; preds = %144
  %146 = load i32, i32* %2, align 4
  %147 = add nsw i32 %146, 1
  store i32 %147, i32* %2, align 4
  br label %87

148:                                              ; preds = %87
  br label %149

149:                                              ; preds = %148
  %150 = load i32, i32* %6, align 4
  %151 = add nsw i32 %150, 1
  store i32 %151, i32* %6, align 4
  br label %81

152:                                              ; preds = %81
  store i32 0, i32* %2, align 4
  br label %153

153:                                              ; preds = %207, %152
  %154 = load i32, i32* %2, align 4
  %155 = load i32, i32* %4, align 4
  %156 = icmp slt i32 %154, %155
  br i1 %156, label %157, label %210

157:                                              ; preds = %153
  %158 = load i32, i32* %2, align 4
  %159 = sext i32 %158 to i64
  %160 = getelementptr inbounds [50 x [3 x float]], [50 x [3 x float]]* %8, i64 0, i64 %159
  %161 = getelementptr inbounds [3 x float], [3 x float]* %160, i64 0, i64 0
  %162 = load float, float* %161, align 4
  %163 = fptosi float %162 to i32
  store i32 %163, i32* %6, align 4
  %164 = load i32, i32* %2, align 4
  %165 = sext i32 %164 to i64
  %166 = getelementptr inbounds [50 x [3 x float]], [50 x [3 x float]]* %8, i64 0, i64 %165
  %167 = getelementptr inbounds [3 x float], [3 x float]* %166, i64 0, i64 1
  %168 = load float, float* %167, align 4
  %169 = fptosi float %168 to i32
  store i32 %169, i32* %5, align 4
  %170 = load i32, i32* %6, align 4
  %171 = sext i32 %170 to i64
  %172 = getelementptr inbounds [10 x [3 x i32]], [10 x [3 x i32]]* %3, i64 0, i64 %171
  %173 = getelementptr inbounds [3 x i32], [3 x i32]* %172, i64 0, i64 0
  %174 = load i32, i32* %173, align 4
  %175 = load i32, i32* %6, align 4
  %176 = sext i32 %175 to i64
  %177 = getelementptr inbounds [10 x [3 x i32]], [10 x [3 x i32]]* %3, i64 0, i64 %176
  %178 = getelementptr inbounds [3 x i32], [3 x i32]* %177, i64 0, i64 1
  %179 = load i32, i32* %178, align 4
  %180 = load i32, i32* %6, align 4
  %181 = sext i32 %180 to i64
  %182 = getelementptr inbounds [10 x [3 x i32]], [10 x [3 x i32]]* %3, i64 0, i64 %181
  %183 = getelementptr inbounds [3 x i32], [3 x i32]* %182, i64 0, i64 2
  %184 = load i32, i32* %183, align 4
  %185 = load i32, i32* %5, align 4
  %186 = sext i32 %185 to i64
  %187 = getelementptr inbounds [10 x [3 x i32]], [10 x [3 x i32]]* %3, i64 0, i64 %186
  %188 = getelementptr inbounds [3 x i32], [3 x i32]* %187, i64 0, i64 0
  %189 = load i32, i32* %188, align 4
  %190 = load i32, i32* %5, align 4
  %191 = sext i32 %190 to i64
  %192 = getelementptr inbounds [10 x [3 x i32]], [10 x [3 x i32]]* %3, i64 0, i64 %191
  %193 = getelementptr inbounds [3 x i32], [3 x i32]* %192, i64 0, i64 1
  %194 = load i32, i32* %193, align 4
  %195 = load i32, i32* %5, align 4
  %196 = sext i32 %195 to i64
  %197 = getelementptr inbounds [10 x [3 x i32]], [10 x [3 x i32]]* %3, i64 0, i64 %196
  %198 = getelementptr inbounds [3 x i32], [3 x i32]* %197, i64 0, i64 2
  %199 = load i32, i32* %198, align 4
  %200 = load i32, i32* %2, align 4
  %201 = sext i32 %200 to i64
  %202 = getelementptr inbounds [50 x [3 x float]], [50 x [3 x float]]* %8, i64 0, i64 %201
  %203 = getelementptr inbounds [3 x float], [3 x float]* %202, i64 0, i64 2
  %204 = load float, float* %203, align 4
  %205 = fpext float %204 to double
  %206 = call i32 (i8*, ...) @printf(i8* getelementptr inbounds ([28 x i8], [28 x i8]* @.str.2, i64 0, i64 0), i32 %174, i32 %179, i32 %184, i32 %189, i32 %194, i32 %199, double %205)
  br label %207

207:                                              ; preds = %157
  %208 = load i32, i32* %2, align 4
  %209 = add nsw i32 %208, 1
  store i32 %209, i32* %2, align 4
  br label %153

210:                                              ; preds = %153
  ret void
}